; Function Attrs: nofree norecurse nosync nounwind memory(argmem: readwrite) uwtable
define internal void @blend_negation_8bit(ptr noundef readonly captures(none) %0, i64 noundef %1, ptr noundef readonly captures(none) %2, i64 noundef %3, ptr noundef writeonly captures(none) %4, i64 noundef %5, i64 noundef %6, i64 noundef %7, ptr noundef readonly captures(none) %8, ptr readnone captures(none) %9) #6 {
  %11 = getelementptr inbounds nuw i8, ptr %8, i64 8
  %12 = load double, ptr %11, align 8, !tbaa !70
  %13 = fptrunc nsz double %12 to float
  %14 = icmp sgt i64 %7, 0
  %15 = icmp sgt i64 %6, 0
  %or.cond = and i1 %14, %15
  br i1 %or.cond, label %.preheader.us, label %._crit_edge50

.preheader.us:                                    ; preds = %10, %._crit_edge.us
  %indvars.iv54 = phi i64 [ %indvars.iv.next55, %._crit_edge.us ], [ 0, %10 ]
  %.03848.us = phi ptr [ %32, %._crit_edge.us ], [ %4, %10 ]
  %.03947.us = phi ptr [ %34, %._crit_edge.us ], [ %2, %10 ]
  %.04046.us = phi ptr [ %33, %._crit_edge.us ], [ %0, %10 ]
  br label %16

16:                                               ; preds = %.preheader.us, %16
  %indvars.iv = phi i64 [ 0, %.preheader.us ], [ %indvars.iv.next, %16 ]
  %17 = getelementptr inbounds nuw i8, ptr %.04046.us, i64 %indvars.iv
  %18 = load i8, ptr %17, align 1, !tbaa !89
  %19 = uitofp i8 %18 to float
  %20 = xor i8 %18, -1
  %21 = zext i8 %20 to i32
  %22 = getelementptr inbounds nuw i8, ptr %.03947.us, i64 %indvars.iv
  %23 = load i8, ptr %22, align 1, !tbaa !89
  %24 = zext i8 %23 to i32
  %25 = sub nsw i32 %21, %24
  %26 = tail call i32 @llvm.abs.i32(i32 %25, i1 true)
  %27 = sub nsw i32 %21, %26
  %28 = sitofp i32 %27 to float
  %29 = tail call nsz float @llvm.fmuladd.f32(float %28, float %13, float %19)
  %30 = fptoui float %29 to i8
  %31 = getelementptr inbounds nuw i8, ptr %.03848.us, i64 %indvars.iv
  store i8 %30, ptr %31, align 1, !tbaa !89
  %indvars.iv.next = add nuw nsw i64 %indvars.iv, 1
  %exitcond.not = icmp eq i64 %indvars.iv.next, %6
  br i1 %exitcond.not, label %._crit_edge.us, label %16, !llvm.loop !134

._crit_edge.us:                                   ; preds = %16
  %32 = getelementptr inbounds i8, ptr %.03848.us, i64 %5
  %33 = getelementptr inbounds i8, ptr %.04046.us, i64 %1
  %34 = getelementptr inbounds i8, ptr %.03947.us, i64 %3
  %indvars.iv.next55 = add nuw nsw i64 %indvars.iv54, 1
  %exitcond57.not = icmp eq i64 %indvars.iv.next55, %7
  br i1 %exitcond57.not, label %._crit_edge50, label %.preheader.us, !llvm.loop !135

._crit_edge50:                                    ; preds = %._crit_edge.us, %10
  ret void
}